; Function Attrs: mustprogress uwtable
define hidden noundef zeroext i1 @_ZN5model9eval_exprEP4exprR7obj_refIS0_11ast_managerEb(ptr noundef nonnull align 8 dereferenceable(160) %this, ptr noundef %e, ptr nocapture noundef nonnull align 8 dereferenceable(16) %result, i1 noundef zeroext %model_completion) local_unnamed_addr #3 align 2 personality ptr @__gxx_personality_v0 {
entry:
  %_smc = alloca %"class.model::scoped_model_completion", align 8
  %ref.tmp = alloca %class.obj_ref, align 8
  %m_mev.i = getelementptr inbounds i8, ptr %this, i64 128
  %call.i = tail call noundef zeroext i1 @_ZNK15model_evaluator20get_model_completionEv(ptr noundef nonnull align 8 dereferenceable(8) %m_mev.i)
  %frombool2.i = zext i1 %call.i to i8
  store i8 %frombool2.i, ptr %_smc, align 8
  %m_model.i = getelementptr inbounds i8, ptr %_smc, i64 8
  store ptr %this, ptr %m_model.i, align 8
  tail call void @_ZN15model_evaluator20set_model_completionEb(ptr noundef nonnull align 8 dereferenceable(8) %m_mev.i, i1 noundef zeroext %model_completion)
  invoke void @_ZN15model_evaluatorclEP4expr(ptr nonnull sret(%class.obj_ref) align 8 %ref.tmp, ptr noundef nonnull align 8 dereferenceable(8) %m_mev.i, ptr noundef %e)
          to label %invoke.cont unwind label %lpad

invoke.cont:                                      ; preds = %entry
  %0 = load ptr, ptr %result, align 8
  %1 = load ptr, ptr %ref.tmp, align 8
  store ptr %1, ptr %result, align 8
  store ptr %0, ptr %ref.tmp, align 8
  %tobool.not.i.i.i = icmp eq ptr %0, null
  br i1 %tobool.not.i.i.i, label %_ZN7obj_refI4expr11ast_managerED2Ev.exit, label %if.then.i.i.i.i

if.then.i.i.i.i:                                  ; preds = %invoke.cont
  %m_manager.i.i.i = getelementptr inbounds i8, ptr %ref.tmp, i64 8
  %2 = load ptr, ptr %m_manager.i.i.i, align 8
  %m_ref_count.i.i.i.i.i = getelementptr inbounds i8, ptr %0, i64 8
  %3 = load i32, ptr %m_ref_count.i.i.i.i.i, align 4
  %dec.i.i.i.i.i = add i32 %3, -1
  store i32 %dec.i.i.i.i.i, ptr %m_ref_count.i.i.i.i.i, align 4
  %cmp.i.i.i.i = icmp eq i32 %dec.i.i.i.i.i, 0
  br i1 %cmp.i.i.i.i, label %if.then2.i.i.i.i, label %_ZN7obj_refI4expr11ast_managerED2Ev.exit

if.then2.i.i.i.i:                                 ; preds = %if.then.i.i.i.i
  invoke void @_ZN11ast_manager11delete_nodeEP3ast(ptr noundef nonnull align 8 dereferenceable(976) %2, ptr noundef nonnull %0)
          to label %_ZN7obj_refI4expr11ast_managerED2Ev.exit unwind label %terminate.lpad.i

terminate.lpad.i:                                 ; preds = %if.then2.i.i.i.i
  %4 = landingpad { ptr, i32 }
          catch ptr null
  %5 = extractvalue { ptr, i32 } %4, 0
  call void @__clang_call_terminate(ptr %5) #20
  unreachable

_ZN7obj_refI4expr11ast_managerED2Ev.exit:         ; preds = %if.then2.i.i.i.i, %if.then.i.i.i.i, %invoke.cont
  store ptr null, ptr %ref.tmp, align 8
  br label %cleanup

lpad:                                             ; preds = %entry
  %6 = landingpad { ptr, i32 }
          cleanup
          catch ptr @_ZTI18rewriter_exception
  %7 = extractvalue { ptr, i32 } %6, 1
  %8 = call i32 @llvm.eh.typeid.for(ptr nonnull @_ZTI18rewriter_exception) #19
  %matches = icmp eq i32 %7, %8
  br i1 %matches, label %catch, label %ehcleanup

catch:                                            ; preds = %lpad
  %9 = extractvalue { ptr, i32 } %6, 0
  %10 = call ptr @__cxa_begin_catch(ptr %9) #19
  invoke void @__cxa_end_catch()
          to label %catch.cleanup_crit_edge unwind label %lpad2

catch.cleanup_crit_edge:                          ; preds = %catch
  %.pre = load ptr, ptr %m_model.i, align 8
  %.pre6 = load i8, ptr %_smc, align 8
  br label %cleanup

lpad2:                                            ; preds = %catch
  %11 = landingpad { ptr, i32 }
          cleanup
  br label %ehcleanup

cleanup:                                          ; preds = %catch.cleanup_crit_edge, %_ZN7obj_refI4expr11ast_managerED2Ev.exit
  %12 = phi i8 [ %frombool2.i, %_ZN7obj_refI4expr11ast_managerED2Ev.exit ], [ %.pre6, %catch.cleanup_crit_edge ]
  %13 = phi ptr [ %this, %_ZN7obj_refI4expr11ast_managerED2Ev.exit ], [ %.pre, %catch.cleanup_crit_edge ]
  %retval.0 = phi i1 [ true, %_ZN7obj_refI4expr11ast_managerED2Ev.exit ], [ false, %catch.cleanup_crit_edge ]
  %14 = and i8 %12, 1
  %tobool.i = icmp ne i8 %14, 0
  %m_mev.i.i = getelementptr inbounds i8, ptr %13, i64 128
  invoke void @_ZN15model_evaluator20set_model_completionEb(ptr noundef nonnull align 8 dereferenceable(8) %m_mev.i.i, i1 noundef zeroext %tobool.i)
          to label %_ZN5model23scoped_model_completionD2Ev.exit unwind label %terminate.lpad.i5

terminate.lpad.i5:                                ; preds = %cleanup
  %15 = landingpad { ptr, i32 }
          catch ptr null
  %16 = extractvalue { ptr, i32 } %15, 0
  call void @__clang_call_terminate(ptr %16) #20
  unreachable

_ZN5model23scoped_model_completionD2Ev.exit:      ; preds = %cleanup
  ret i1 %retval.0

ehcleanup:                                        ; preds = %lpad2, %lpad
  %lpad.val6.merged = phi { ptr, i32 } [ %11, %lpad2 ], [ %6, %lpad ]
  call void @_ZN5model23scoped_model_completionD2Ev(ptr noundef nonnull align 8 dereferenceable(16) %_smc) #19
  resume { ptr, i32 } %lpad.val6.merged
}